target datalayout = "e-m:e-p270:32:32-p271:32:32-p272:64:64-i64:64-i128:128-f80:128-n8:16:32:64-S128"
target triple = "x86_64-pc-linux-gnu"

%"class.llvm::SmallPtrSetImplBase.base" = type <{ ptr, ptr, i32, i32, i32 }>
%"struct.(anonymous namespace)::MachineVerifier" = type { ptr, ptr, ptr, ptr, ptr, ptr, ptr, ptr, ptr, i32, i8, i8, i8, ptr, ptr, %"class.llvm::SmallPtrSet.69", %"class.llvm::BitVector", %"class.llvm::DenseSet", %"class.llvm::SmallVector.80", %"class.llvm::SmallVector.80", %"class.llvm::SmallVector.80", %"class.llvm::SmallVector.85", %"class.llvm::SlotIndex", %"class.llvm::DenseMap.90", ptr, ptr, ptr, ptr, %"class.llvm::MachineDominatorTree" }
%"class.llvm::SmallPtrSet.69" = type { %"class.llvm::SmallPtrSetImpl.base.71", [8 x ptr] }
%"class.llvm::SmallPtrSetImpl.base.71" = type { %"class.llvm::SmallPtrSetImplBase.base" }
%"class.llvm::BitVector" = type <{ %"class.llvm::SmallVector.72", i32, [4 x i8] }>
%"class.llvm::SmallVector.72" = type { %"class.llvm::SmallVectorImpl.73", %"struct.llvm::SmallVectorStorage.76" }
%"class.llvm::SmallVectorImpl.73" = type { %"class.llvm::SmallVectorTemplateBase.74" }
%"class.llvm::SmallVectorTemplateBase.74" = type { %"class.llvm::SmallVectorTemplateCommon.75" }
%"class.llvm::SmallVectorTemplateCommon.75" = type { %"class.llvm::SmallVectorBase" }
%"class.llvm::SmallVectorBase" = type { ptr, i32, i32 }
%"struct.llvm::SmallVectorStorage.76" = type { [48 x i8] }
%"class.llvm::DenseSet" = type { %"class.llvm::detail::DenseSetImpl" }
%"class.llvm::detail::DenseSetImpl" = type { %"class.llvm::DenseMap.77" }
%"class.llvm::DenseMap.77" = type <{ ptr, i32, i32, i32, [4 x i8] }>
%"class.llvm::SmallVector.80" = type { %"class.llvm::SmallVectorImpl.81", %"struct.llvm::SmallVectorStorage.84" }
%"class.llvm::SmallVectorImpl.81" = type { %"class.llvm::SmallVectorTemplateBase.82" }
%"class.llvm::SmallVectorTemplateBase.82" = type { %"class.llvm::SmallVectorTemplateCommon.83" }
%"class.llvm::SmallVectorTemplateCommon.83" = type { %"class.llvm::SmallVectorBase" }
%"struct.llvm::SmallVectorStorage.84" = type { [64 x i8] }
%"class.llvm::SmallVector.85" = type { %"class.llvm::SmallVectorImpl.86", %"struct.llvm::SmallVectorStorage.89" }
%"class.llvm::SmallVectorImpl.86" = type { %"class.llvm::SmallVectorTemplateBase.87" }
%"class.llvm::SmallVectorTemplateBase.87" = type { %"class.llvm::SmallVectorTemplateCommon.88" }
%"class.llvm::SmallVectorTemplateCommon.88" = type { %"class.llvm::SmallVectorBase" }
%"struct.llvm::SmallVectorStorage.89" = type { [32 x i8] }
%"class.llvm::SlotIndex" = type { %"class.llvm::PointerIntPair" }
%"class.llvm::PointerIntPair" = type { %"struct.llvm::detail::PunnedPointer" }
%"struct.llvm::detail::PunnedPointer" = type { [8 x i8] }
%"class.llvm::DenseMap.90" = type <{ ptr, i32, i32, i32, [4 x i8] }>
%"class.llvm::MachineDominatorTree" = type { %"class.llvm::DominatorTreeBase.base", %"class.llvm::SmallVector.103", %"class.llvm::SmallSet" }
%"class.llvm::DominatorTreeBase.base" = type <{ %"class.llvm::SmallVector.93", %"class.llvm::SmallVector.98", [8 x i8], ptr, ptr, i8, [3 x i8], i32, i32 }>
%"class.llvm::SmallVector.93" = type { %"class.llvm::SmallVectorImpl.94", %"struct.llvm::SmallVectorStorage.97" }
%"class.llvm::SmallVectorImpl.94" = type { %"class.llvm::SmallVectorTemplateBase.95" }
%"class.llvm::SmallVectorTemplateBase.95" = type { %"class.llvm::SmallVectorTemplateCommon.96" }
%"class.llvm::SmallVectorTemplateCommon.96" = type { %"class.llvm::SmallVectorBase" }
%"struct.llvm::SmallVectorStorage.97" = type { [8 x i8] }
%"class.llvm::SmallVector.98" = type { %"class.llvm::SmallVectorImpl.99", %"struct.llvm::SmallVectorStorage.102" }
%"class.llvm::SmallVectorImpl.99" = type { %"class.llvm::SmallVectorTemplateBase.100" }
%"class.llvm::SmallVectorTemplateBase.100" = type { %"class.llvm::SmallVectorTemplateCommon.101" }
%"class.llvm::SmallVectorTemplateCommon.101" = type { %"class.llvm::SmallVectorBase" }
%"struct.llvm::SmallVectorStorage.102" = type { [48 x i8] }
%"class.llvm::SmallVector.103" = type { %"class.llvm::SmallVectorImpl.104", %"struct.llvm::SmallVectorStorage.107" }
%"class.llvm::SmallVectorImpl.104" = type { %"class.llvm::SmallVectorTemplateBase.105" }
%"class.llvm::SmallVectorTemplateBase.105" = type { %"class.llvm::SmallVectorTemplateCommon.106" }
%"class.llvm::SmallVectorTemplateCommon.106" = type { %"class.llvm::SmallVectorBase" }
%"struct.llvm::SmallVectorStorage.107" = type { [768 x i8] }
%"class.llvm::SmallSet" = type { %"class.llvm::SmallPtrSet.108" }
%"class.llvm::SmallPtrSet.108" = type { %"class.llvm::SmallPtrSetImpl.base.110", [32 x ptr] }
%"class.llvm::SmallPtrSetImpl.base.110" = type { %"class.llvm::SmallPtrSetImplBase.base" }
%"class.llvm::Twine" = type <{ %"union.llvm::Twine::Child", %"union.llvm::Twine::Child", i8, i8, [6 x i8] }>
%"union.llvm::Twine::Child" = type { %struct.anon }
%struct.anon = type { ptr, i64 }

@.str = private unnamed_addr constant [7 x i8] c"Found \00", align 1
@.str.1 = private unnamed_addr constant [22 x i8] c" machine code errors.\00", align 1

; Function Attrs: mustprogress nounwind uwtable
define linkonce_odr hidden void @_ZN4llvm5TwineC2Ej(ptr noundef nonnull align 8 dereferenceable(34) %0, i32 noundef %1) unnamed_addr #0 comdat align 2 {
  %3 = alloca ptr, align 8
  %4 = alloca i32, align 4
  store ptr %0, ptr %3, align 8
  store i32 %1, ptr %4, align 4
  %5 = load ptr, ptr %3, align 8
  %6 = getelementptr inbounds nuw %"class.llvm::Twine", ptr %5, i32 0, i32 2
  store i8 9, ptr %6, align 8
  %7 = getelementptr inbounds nuw %"class.llvm::Twine", ptr %5, i32 0, i32 3
  store i8 1, ptr %7, align 1
  %8 = load i32, ptr %4, align 4
  %9 = getelementptr inbounds nuw %"class.llvm::Twine", ptr %5, i32 0, i32 0
  store i32 %8, ptr %9, align 8
  ret void
}

; Function Attrs: mustprogress nounwind uwtable
define linkonce_odr hidden void @_ZN4llvm5TwineC2EPKc(ptr noundef nonnull align 8 dereferenceable(34) %0, ptr noundef %1) unnamed_addr #0 comdat align 2 {
  %3 = alloca ptr, align 8
  %4 = alloca ptr, align 8
  store ptr %0, ptr %3, align 8
  store ptr %1, ptr %4, align 8
  %5 = load ptr, ptr %3, align 8
  %6 = getelementptr inbounds nuw %"class.llvm::Twine", ptr %5, i32 0, i32 2
  store i8 1, ptr %6, align 8
  %7 = getelementptr inbounds nuw %"class.llvm::Twine", ptr %5, i32 0, i32 3
  store i8 1, ptr %7, align 1
  %8 = load ptr, ptr %4, align 8
  %9 = getelementptr inbounds i8, ptr %8, i64 0
  %10 = load i8, ptr %9, align 1
  %11 = sext i8 %10 to i32
  %12 = icmp ne i32 %11, 0
  br i1 %12, label %13, label %17

13:                                               ; preds = %2
  %14 = load ptr, ptr %4, align 8
  %15 = getelementptr inbounds nuw %"class.llvm::Twine", ptr %5, i32 0, i32 0
  store ptr %14, ptr %15, align 8
  %16 = getelementptr inbounds nuw %"class.llvm::Twine", ptr %5, i32 0, i32 2
  store i8 3, ptr %16, align 8
  br label %19

17:                                               ; preds = %2
  %18 = getelementptr inbounds nuw %"class.llvm::Twine", ptr %5, i32 0, i32 2
  store i8 1, ptr %18, align 8
  br label %19

19:                                               ; preds = %17, %13
  ret void
}

; Function Attrs: mustprogress nounwind uwtable
define dso_local noundef zeroext i1 @_ZNK4llvm15MachineFunction6verifyEPNS_4PassEPKcb(ptr noundef nonnull align 8 dereferenceable(1041) %0, ptr noundef %1, ptr noundef %2, i1 noundef zeroext %3) #0 align 2 {
  %5 = alloca ptr, align 8
  %6 = alloca ptr, align 8
  %7 = alloca ptr, align 8
  %8 = alloca i8, align 1
  %9 = alloca ptr, align 8
  %10 = alloca i32, align 4
  %11 = alloca %"struct.(anonymous namespace)::MachineVerifier", align 8
  %12 = alloca %"class.llvm::Twine", align 8
  %13 = alloca %"class.llvm::Twine", align 8
  %14 = alloca %"class.llvm::Twine", align 8
  %15 = alloca %"class.llvm::Twine", align 8
  %16 = alloca %"class.llvm::Twine", align 8
  store ptr %0, ptr %5, align 8
  store ptr %1, ptr %6, align 8
  store ptr %2, ptr %7, align 8
  %17 = zext i1 %3 to i8
  store i8 %17, ptr %8, align 1
  %18 = load ptr, ptr %5, align 8
  store ptr %18, ptr %9, align 8
  %19 = load ptr, ptr %6, align 8
  %20 = load ptr, ptr %7, align 8
  call void @_ZN12_GLOBAL__N_115MachineVerifierC2EPN4llvm4PassEPKc(ptr noundef nonnull align 8 dereferenceable(1840) %11, ptr noundef %19, ptr noundef %20)
  %21 = load ptr, ptr %9, align 8
  %22 = call noundef i32 @_ZN12_GLOBAL__N_115MachineVerifier6verifyERKN4llvm15MachineFunctionE(ptr noundef nonnull align 8 dereferenceable(1840) %11, ptr noundef nonnull align 8 dereferenceable(1041) %21)
  call void @_ZN12_GLOBAL__N_115MachineVerifierD2Ev(ptr noundef nonnull align 8 dereferenceable(1840) %11) #12
  store i32 %22, ptr %10, align 4
  %23 = load i8, ptr %8, align 1
  %24 = trunc i8 %23 to i1
  br i1 %24, label %25, label %30

25:                                               ; preds = %4
  %26 = load i32, ptr %10, align 4
  %27 = icmp ne i32 %26, 0
  br i1 %27, label %28, label %30

28:                                               ; preds = %25
  call void @_ZN4llvm5TwineC2EPKc(ptr noundef nonnull align 8 dereferenceable(34) %14, ptr noundef @.str)
  %29 = load i32, ptr %10, align 4
  call void @_ZN4llvm5TwineC2Ej(ptr noundef nonnull align 8 dereferenceable(34) %15, i32 noundef %29)
  call void @_ZN4llvmplERKNS_5TwineES2_(ptr dead_on_unwind writable sret(%"class.llvm::Twine") align 8 %13, ptr noundef nonnull align 8 dereferenceable(34) %14, ptr noundef nonnull align 8 dereferenceable(34) %15)
  call void @_ZN4llvm5TwineC2EPKc(ptr noundef nonnull align 8 dereferenceable(34) %16, ptr noundef @.str.1)
  call void @_ZN4llvmplERKNS_5TwineES2_(ptr dead_on_unwind writable sret(%"class.llvm::Twine") align 8 %12, ptr noundef nonnull align 8 dereferenceable(34) %13, ptr noundef nonnull align 8 dereferenceable(34) %16)
  call void @_ZN4llvm18report_fatal_errorERKNS_5TwineEb(ptr noundef nonnull align 8 dereferenceable(34) %12, i1 noundef zeroext true) #13
  unreachable

30:                                               ; preds = %25, %4
  %31 = load i32, ptr %10, align 4
  %32 = icmp eq i32 %31, 0
  ret i1 %32
}