; Function Attrs: mustprogress nounwind uwtable
define dso_local noundef zeroext i1 @_ZNK4llvm15MachineFunction6verifyEPNS_4PassEPKcb(ptr noundef nonnull align 8 dereferenceable(1041) %0, ptr noundef %1, ptr noundef %2, i1 noundef zeroext %3) local_unnamed_addr #0 align 2 {
  %5 = alloca %"struct.(anonymous namespace)::MachineVerifier", align 8
  %6 = alloca %"class.llvm::Twine", align 8
  %7 = alloca %"class.llvm::Twine", align 8
  %8 = alloca %"class.llvm::Twine", align 8
  %9 = alloca %"class.llvm::Twine", align 8
  %10 = alloca %"class.llvm::Twine", align 8
  call fastcc void @_ZN12_GLOBAL__N_115MachineVerifierC2EPN4llvm4PassEPKc(ptr noundef nonnull align 8 dereferenceable(1840) %5, ptr noundef %1, ptr noundef %2)
  %11 = call fastcc noundef i32 @_ZN12_GLOBAL__N_115MachineVerifier6verifyERKN4llvm15MachineFunctionE(ptr noundef nonnull align 8 dereferenceable(1840) %5, ptr noundef nonnull align 8 dereferenceable(1041) %0)
  call fastcc void @_ZN12_GLOBAL__N_115MachineVerifierD2Ev(ptr noundef nonnull align 8 dereferenceable(1840) %5) #18
  %12 = icmp ne i32 %11, 0
  %or.cond = and i1 %3, %12
  br i1 %or.cond, label %13, label %20

13:                                               ; preds = %4
  %14 = getelementptr inbounds nuw i8, ptr %8, i64 32
  %15 = getelementptr inbounds nuw i8, ptr %8, i64 33
  store i8 1, ptr %15, align 1
  store ptr @.str, ptr %8, align 8
  store i8 3, ptr %14, align 8
  %16 = getelementptr inbounds nuw i8, ptr %9, i64 32
  store i8 9, ptr %16, align 8
  %17 = getelementptr inbounds nuw i8, ptr %9, i64 33
  store i8 1, ptr %17, align 1
  store i32 %11, ptr %9, align 8
  call void @_ZN4llvmplERKNS_5TwineES2_(ptr dead_on_unwind nonnull writable sret(%"class.llvm::Twine") align 8 %7, ptr noundef nonnull align 8 dereferenceable(34) %8, ptr noundef nonnull align 8 dereferenceable(34) %9)
  %18 = getelementptr inbounds nuw i8, ptr %10, i64 32
  %19 = getelementptr inbounds nuw i8, ptr %10, i64 33
  store i8 1, ptr %19, align 1
  store ptr @.str.1, ptr %10, align 8
  store i8 3, ptr %18, align 8
  call void @_ZN4llvmplERKNS_5TwineES2_(ptr dead_on_unwind nonnull writable sret(%"class.llvm::Twine") align 8 %6, ptr noundef nonnull align 8 dereferenceable(34) %7, ptr noundef nonnull align 8 dereferenceable(34) %10)
  call void @_ZN4llvm18report_fatal_errorERKNS_5TwineEb(ptr noundef nonnull align 8 dereferenceable(34) %6, i1 noundef zeroext true) #19
  unreachable

20:                                               ; preds = %4
  %21 = icmp eq i32 %11, 0
  ret i1 %21
}